; Function Attrs: mustprogress nounwind uwtable
define hidden noundef zeroext i1 @_ZN6hermes6parser6detail12JSParserImpl11checkAndEatENS0_9TokenKindENS0_7JSLexer14GrammarContextE(ptr noundef nonnull align 8 dereferenceable(2752) %this, i32 noundef %kind, i32 noundef %grammarContext) local_unnamed_addr #0 align 2 {
entry:
  %tok_ = getelementptr inbounds i8, ptr %this, i64 1144
  %0 = load ptr, ptr %tok_, align 8
  %1 = load i32, ptr %0, align 8
  %cmp = icmp eq i32 %1, %kind
  br i1 %cmp, label %if.then, label %return

if.then:                                          ; preds = %entry
  %lexer_.i = getelementptr inbounds i8, ptr %this, i64 16
  %call2.i = tail call noundef ptr @_ZN6hermes6parser7JSLexer7advanceENS1_14GrammarContextE(ptr noundef nonnull align 8 dereferenceable(1128) %lexer_.i, i32 noundef %grammarContext) #16
  store ptr %call2.i, ptr %tok_, align 8
  br label %return

return:                                           ; preds = %entry, %if.then
  ret i1 %cmp
}